; Function Attrs: mustprogress uwtable
define dso_local noundef ptr @_Z16luaL_checkvectorP9lua_Statei(ptr noundef %0, i32 noundef %1) local_unnamed_addr #2 {
  %3 = tail call noundef ptr @_Z12lua_tovectorP9lua_Statei(ptr noundef %0, i32 noundef %1)
  %.not = icmp eq ptr %3, null
  br i1 %.not, label %4, label %5

4:                                                ; preds = %2
  tail call fastcc void @_ZL9tag_errorP9lua_Stateii(ptr noundef %0, i32 noundef %1, i32 noundef 4) #11
  unreachable

5:                                                ; preds = %2
  ret ptr %3
}